target datalayout = "e-m:e-p270:32:32-p271:32:32-p272:64:64-i64:64-i128:128-f80:128-n8:16:32:64-S128"
target triple = "x86_64-unknown-linux-gnu"

; Function Attrs: mustprogress uwtable
define void @_ZN8facebook5velox6memory14MemoryPoolImpl16enterArbitrationEv(ptr noundef nonnull align 8 dereferenceable(480) %this) unnamed_addr #0 align 2 {
entry:
  %this.addr = alloca ptr, align 8
  store ptr %this, ptr %this.addr, align 8
  %this1 = load ptr, ptr %this.addr, align 8
  %vtable = load ptr, ptr %this1, align 8
  %vfn = getelementptr inbounds ptr, ptr %vtable, i64 38
  %0 = load ptr, ptr %vfn, align 8
  %call = call noundef ptr %0(ptr noundef nonnull align 8 dereferenceable(480) %this1)
  %cmp = icmp ne ptr %call, null
  br i1 %cmp, label %if.then, label %if.end

if.then:                                          ; preds = %entry
  %vtable2 = load ptr, ptr %this1, align 8
  %vfn3 = getelementptr inbounds ptr, ptr %vtable2, i64 38
  %1 = load ptr, ptr %vfn3, align 8
  %call4 = call noundef ptr %1(ptr noundef nonnull align 8 dereferenceable(480) %this1)
  %vtable5 = load ptr, ptr %call4, align 8
  %vfn6 = getelementptr inbounds ptr, ptr %vtable5, i64 2
  %2 = load ptr, ptr %vfn6, align 8
  call void %2(ptr noundef nonnull align 8 dereferenceable(8) %call4)
  br label %if.end

if.end:                                           ; preds = %if.then, %entry
  ret void
}