; Function Attrs: mustprogress uwtable
define void @_ZN8facebook5velox6memory14MemoryPoolImpl16enterArbitrationEv(ptr noundef nonnull align 8 dereferenceable(480) %this) unnamed_addr #0 align 2 {
entry:
  %vtable = load ptr, ptr %this, align 8
  %vfn = getelementptr inbounds i8, ptr %vtable, i64 304
  %0 = load ptr, ptr %vfn, align 8
  %call = tail call noundef ptr %0(ptr noundef nonnull align 8 dereferenceable(480) %this)
  %cmp.not = icmp eq ptr %call, null
  br i1 %cmp.not, label %if.end, label %if.then

if.then:                                          ; preds = %entry
  %vtable2 = load ptr, ptr %this, align 8
  %vfn3 = getelementptr inbounds i8, ptr %vtable2, i64 304
  %1 = load ptr, ptr %vfn3, align 8
  %call4 = tail call noundef ptr %1(ptr noundef nonnull align 8 dereferenceable(480) %this)
  %vtable5 = load ptr, ptr %call4, align 8
  %vfn6 = getelementptr inbounds i8, ptr %vtable5, i64 16
  %2 = load ptr, ptr %vfn6, align 8
  tail call void %2(ptr noundef nonnull align 8 dereferenceable(8) %call4)
  br label %if.end

if.end:                                           ; preds = %if.then, %entry
  ret void
}